target datalayout = "e-m:e-p270:32:32-p271:32:32-p272:64:64-i64:64-i128:128-f80:128-n8:16:32:64-S128"
target triple = "x86_64-pc-linux-gnu"

%"struct.Luau::CodeGen::IrOp" = type { i32 }

; Function Attrs: mustprogress uwtable
define dso_local void @_ZN4Luau7CodeGen23translateInstJumpxEqNilERNS0_9IrBuilderEPKji(ptr noundef nonnull align 8 dereferenceable(752) %0, ptr noundef %1, i32 noundef %2) #0 {
  %4 = alloca ptr, align 8
  %5 = alloca ptr, align 8
  %6 = alloca i32, align 4
  %7 = alloca i32, align 4
  %8 = alloca i8, align 1
  %9 = alloca %"struct.Luau::CodeGen::IrOp", align 4
  %10 = alloca %"struct.Luau::CodeGen::IrOp", align 4
  %11 = alloca %"struct.Luau::CodeGen::IrOp", align 4
  %12 = alloca %"struct.Luau::CodeGen::IrOp", align 4
  %13 = alloca %"struct.Luau::CodeGen::IrOp", align 4
  %14 = alloca %"struct.Luau::CodeGen::IrOp", align 4
  %15 = alloca %"struct.Luau::CodeGen::IrOp", align 4
  %16 = alloca %"struct.Luau::CodeGen::IrOp", align 4
  %17 = alloca %"struct.Luau::CodeGen::IrOp", align 4
  %18 = alloca %"struct.Luau::CodeGen::IrOp", align 4
  %19 = alloca %"struct.Luau::CodeGen::IrOp", align 4
  store ptr %0, ptr %4, align 8, !tbaa !4
  store ptr %1, ptr %5, align 8, !tbaa !9
  store i32 %2, ptr %6, align 4, !tbaa !11
  call void @llvm.lifetime.start.p0(i64 4, ptr %7) #13
  %20 = load ptr, ptr %5, align 8, !tbaa !9
  %21 = load i32, ptr %20, align 4, !tbaa !11
  %22 = lshr i32 %21, 8
  %23 = and i32 %22, 255
  store i32 %23, ptr %7, align 4, !tbaa !11
  call void @llvm.lifetime.start.p0(i64 1, ptr %8) #13
  %24 = load ptr, ptr %5, align 8, !tbaa !9
  %25 = getelementptr inbounds i32, ptr %24, i64 1
  %26 = load i32, ptr %25, align 4, !tbaa !11
  %27 = and i32 %26, -2147483648
  %28 = icmp ne i32 %27, 0
  %29 = zext i1 %28 to i8
  store i8 %29, ptr %8, align 1, !tbaa !113
  call void @llvm.lifetime.start.p0(i64 4, ptr %9) #13
  %30 = load ptr, ptr %4, align 8, !tbaa !4
  %31 = load i32, ptr %6, align 4, !tbaa !11
  %32 = add nsw i32 %31, 1
  %33 = load ptr, ptr %5, align 8, !tbaa !9
  %34 = load i32, ptr %33, align 4, !tbaa !11
  %35 = ashr i32 %34, 16
  %36 = add nsw i32 %32, %35
  %37 = call i32 @_ZN4Luau7CodeGen9IrBuilder11blockAtInstEj(ptr noundef nonnull align 8 dereferenceable(752) %30, i32 noundef %36)
  %38 = getelementptr inbounds nuw %"struct.Luau::CodeGen::IrOp", ptr %9, i32 0, i32 0
  store i32 %37, ptr %38, align 4
  call void @llvm.lifetime.start.p0(i64 4, ptr %10) #13
  %39 = load ptr, ptr %4, align 8, !tbaa !4
  %40 = load i32, ptr %6, align 4, !tbaa !11
  %41 = add nsw i32 %40, 2
  %42 = call i32 @_ZN4Luau7CodeGen9IrBuilder11blockAtInstEj(ptr noundef nonnull align 8 dereferenceable(752) %39, i32 noundef %41)
  %43 = getelementptr inbounds nuw %"struct.Luau::CodeGen::IrOp", ptr %10, i32 0, i32 0
  store i32 %42, ptr %43, align 4
  call void @llvm.lifetime.start.p0(i64 4, ptr %11) #13
  %44 = load ptr, ptr %4, align 8, !tbaa !4
  %45 = load ptr, ptr %4, align 8, !tbaa !4
  %46 = load i32, ptr %7, align 4, !tbaa !11
  %47 = trunc i32 %46 to i8
  %48 = call i32 @_ZN4Luau7CodeGen9IrBuilder5vmRegEh(ptr noundef nonnull align 8 dereferenceable(752) %45, i8 noundef zeroext %47)
  %49 = getelementptr inbounds nuw %"struct.Luau::CodeGen::IrOp", ptr %12, i32 0, i32 0
  store i32 %48, ptr %49, align 4
  %50 = getelementptr inbounds nuw %"struct.Luau::CodeGen::IrOp", ptr %12, i32 0, i32 0
  %51 = load i32, ptr %50, align 4
  %52 = call i32 @_ZN4Luau7CodeGen9IrBuilder4instENS0_5IrCmdENS0_4IrOpE(ptr noundef nonnull align 8 dereferenceable(752) %44, i8 noundef zeroext 1, i32 %51)
  %53 = getelementptr inbounds nuw %"struct.Luau::CodeGen::IrOp", ptr %11, i32 0, i32 0
  store i32 %52, ptr %53, align 4
  %54 = load ptr, ptr %4, align 8, !tbaa !4
  call void @llvm.memcpy.p0.p0.i64(ptr align 4 %13, ptr align 4 %11, i64 4, i1 false), !tbaa.struct !112
  %55 = load ptr, ptr %4, align 8, !tbaa !4
  %56 = call i32 @_ZN4Luau7CodeGen9IrBuilder8constTagEh(ptr noundef nonnull align 8 dereferenceable(752) %55, i8 noundef zeroext 0)
  %57 = getelementptr inbounds nuw %"struct.Luau::CodeGen::IrOp", ptr %14, i32 0, i32 0
  store i32 %56, ptr %57, align 4
  %58 = load i8, ptr %8, align 1, !tbaa !113, !range !114, !noundef !115
  %59 = trunc i8 %58 to i1
  br i1 %59, label %60, label %61

60:                                               ; preds = %3
  br label %62

61:                                               ; preds = %3
  br label %62

62:                                               ; preds = %61, %60
  %63 = phi ptr [ %10, %60 ], [ %9, %61 ]
  call void @llvm.memcpy.p0.p0.i64(ptr align 4 %15, ptr align 4 %63, i64 4, i1 false), !tbaa.struct !112
  %64 = load i8, ptr %8, align 1, !tbaa !113, !range !114, !noundef !115
  %65 = trunc i8 %64 to i1
  br i1 %65, label %66, label %67

66:                                               ; preds = %62
  br label %68

67:                                               ; preds = %62
  br label %68

68:                                               ; preds = %67, %66
  %69 = phi ptr [ %9, %66 ], [ %10, %67 ]
  call void @llvm.memcpy.p0.p0.i64(ptr align 4 %16, ptr align 4 %69, i64 4, i1 false), !tbaa.struct !112
  %70 = getelementptr inbounds nuw %"struct.Luau::CodeGen::IrOp", ptr %13, i32 0, i32 0
  %71 = load i32, ptr %70, align 4
  %72 = getelementptr inbounds nuw %"struct.Luau::CodeGen::IrOp", ptr %14, i32 0, i32 0
  %73 = load i32, ptr %72, align 4
  %74 = getelementptr inbounds nuw %"struct.Luau::CodeGen::IrOp", ptr %15, i32 0, i32 0
  %75 = load i32, ptr %74, align 4
  %76 = getelementptr inbounds nuw %"struct.Luau::CodeGen::IrOp", ptr %16, i32 0, i32 0
  %77 = load i32, ptr %76, align 4
  %78 = call i32 @_ZN4Luau7CodeGen9IrBuilder4instENS0_5IrCmdENS0_4IrOpES3_S3_S3_(ptr noundef nonnull align 8 dereferenceable(752) %54, i8 noundef zeroext 49, i32 %71, i32 %73, i32 %75, i32 %77)
  %79 = getelementptr inbounds nuw %"struct.Luau::CodeGen::IrOp", ptr %17, i32 0, i32 0
  store i32 %78, ptr %79, align 4
  %80 = load ptr, ptr %4, align 8, !tbaa !4
  call void @llvm.memcpy.p0.p0.i64(ptr align 4 %18, ptr align 4 %10, i64 4, i1 false), !tbaa.struct !112
  %81 = getelementptr inbounds nuw %"struct.Luau::CodeGen::IrOp", ptr %18, i32 0, i32 0
  %82 = load i32, ptr %81, align 4
  %83 = call noundef zeroext i1 @_ZN4Luau7CodeGen9IrBuilder15isInternalBlockENS0_4IrOpE(ptr noundef nonnull align 8 dereferenceable(752) %80, i32 %82)
  br i1 %83, label %84, label %88

84:                                               ; preds = %68
  %85 = load ptr, ptr %4, align 8, !tbaa !4
  call void @llvm.memcpy.p0.p0.i64(ptr align 4 %19, ptr align 4 %10, i64 4, i1 false), !tbaa.struct !112
  %86 = getelementptr inbounds nuw %"struct.Luau::CodeGen::IrOp", ptr %19, i32 0, i32 0
  %87 = load i32, ptr %86, align 4
  call void @_ZN4Luau7CodeGen9IrBuilder10beginBlockENS0_4IrOpE(ptr noundef nonnull align 8 dereferenceable(752) %85, i32 %87)
  br label %88

88:                                               ; preds = %84, %68
  call void @llvm.lifetime.end.p0(i64 4, ptr %11) #13
  call void @llvm.lifetime.end.p0(i64 4, ptr %10) #13
  call void @llvm.lifetime.end.p0(i64 4, ptr %9) #13
  call void @llvm.lifetime.end.p0(i64 1, ptr %8) #13
  call void @llvm.lifetime.end.p0(i64 4, ptr %7) #13
  ret void
}