; Function Attrs: mustprogress uwtable
define dso_local void @_ZN4Luau7CodeGen23translateInstJumpxEqNilERNS0_9IrBuilderEPKji(ptr noundef nonnull align 8 dereferenceable(752) %0, ptr noundef readonly captures(none) %1, i32 noundef %2) local_unnamed_addr #0 {
  %4 = load i32, ptr %1, align 4, !tbaa !4
  %5 = lshr i32 %4, 8
  %6 = getelementptr inbounds nuw i8, ptr %1, i64 4
  %7 = load i32, ptr %6, align 4, !tbaa !4
  %.not = icmp sgt i32 %7, -1
  %8 = add nsw i32 %2, 1
  %9 = ashr i32 %4, 16
  %10 = add nsw i32 %8, %9
  %11 = tail call i32 @_ZN4Luau7CodeGen9IrBuilder11blockAtInstEj(ptr noundef nonnull align 8 dereferenceable(752) %0, i32 noundef %10)
  %12 = add nsw i32 %2, 2
  %13 = tail call i32 @_ZN4Luau7CodeGen9IrBuilder11blockAtInstEj(ptr noundef nonnull align 8 dereferenceable(752) %0, i32 noundef %12)
  %14 = trunc i32 %5 to i8
  %15 = tail call i32 @_ZN4Luau7CodeGen9IrBuilder5vmRegEh(ptr noundef nonnull align 8 dereferenceable(752) %0, i8 noundef zeroext %14)
  %16 = tail call i32 @_ZN4Luau7CodeGen9IrBuilder4instENS0_5IrCmdENS0_4IrOpE(ptr noundef nonnull align 8 dereferenceable(752) %0, i8 noundef zeroext 1, i32 %15)
  %17 = tail call i32 @_ZN4Luau7CodeGen9IrBuilder8constTagEh(ptr noundef nonnull align 8 dereferenceable(752) %0, i8 noundef zeroext 0)
  %.sroa.04.0.copyload.sroa.speculated = select i1 %.not, i32 %11, i32 %13
  %.sroa.03.0.copyload.sroa.speculated = select i1 %.not, i32 %13, i32 %11
  %18 = tail call i32 @_ZN4Luau7CodeGen9IrBuilder4instENS0_5IrCmdENS0_4IrOpES3_S3_S3_(ptr noundef nonnull align 8 dereferenceable(752) %0, i8 noundef zeroext 49, i32 %16, i32 %17, i32 %.sroa.04.0.copyload.sroa.speculated, i32 %.sroa.03.0.copyload.sroa.speculated)
  %19 = tail call noundef zeroext i1 @_ZN4Luau7CodeGen9IrBuilder15isInternalBlockENS0_4IrOpE(ptr noundef nonnull align 8 dereferenceable(752) %0, i32 %13)
  br i1 %19, label %20, label %21

20:                                               ; preds = %3
  tail call void @_ZN4Luau7CodeGen9IrBuilder10beginBlockENS0_4IrOpE(ptr noundef nonnull align 8 dereferenceable(752) %0, i32 %13)
  br label %21

21:                                               ; preds = %20, %3
  ret void
}